; ModuleID = 'source-C-CXX/42/1053.c'
source_filename = "source-C-CXX/42/1053.c"
target datalayout = "e-m:e-p270:32:32-p271:32:32-p272:64:64-i64:64-f80:128-n8:16:32:64-S128"
target triple = "x86_64-pc-linux-gnu"

@.str = private unnamed_addr constant [3 x i8] c"%d\00", align 1
@.str.1 = private unnamed_addr constant [7 x i8] c"%d %d\0A\00", align 1

; Function Attrs: nofree nounwind sspstrong uwtable
define dso_local i32 @main() local_unnamed_addr #0 {
  %1 = alloca i32, align 4
  %2 = bitcast i32* %1 to i8*
  call void @llvm.lifetime.start.p0i8(i64 4, i8* nonnull %2) #3
  %3 = call i32 (i8*, ...) @__isoc99_scanf(i8* getelementptr inbounds ([3 x i8], [3 x i8]* @.str, i64 0, i64 0), i32* nonnull %1)
  %4 = load i32, i32* %1, align 4, !tbaa !5
  %5 = icmp slt i32 %4, 4
  br i1 %5, label %45, label %6

6:                                                ; preds = %0
  %7 = lshr i32 %4, 1
  %8 = add nuw nsw i32 %7, 1
  br label %9

9:                                                ; preds = %40, %6
  %10 = phi i32 [ -1, %6 ], [ %43, %40 ]
  %11 = phi i32 [ 3, %6 ], [ %42, %40 ]
  %12 = phi i32 [ 2, %6 ], [ %41, %40 ]
  br label %13

13:                                               ; preds = %9, %17
  %14 = phi i32 [ %18, %17 ], [ 2, %9 ]
  %15 = urem i32 %12, %14
  %16 = icmp eq i32 %15, 0
  br i1 %16, label %20, label %17

17:                                               ; preds = %13
  %18 = add nuw nsw i32 %14, 1
  %19 = icmp eq i32 %18, %11
  br i1 %19, label %40, label %13, !llvm.loop !9

20:                                               ; preds = %13
  %21 = icmp eq i32 %14, %12
  br i1 %21, label %22, label %40

22:                                               ; preds = %20
  %23 = load i32, i32* %1, align 4, !tbaa !5
  %24 = sub nsw i32 %23, %12
  %25 = icmp slt i32 %24, 2
  br i1 %25, label %35, label %26

26:                                               ; preds = %22
  %27 = add i32 %23, %10
  br label %28

28:                                               ; preds = %26, %32
  %29 = phi i32 [ %33, %32 ], [ 2, %26 ]
  %30 = srem i32 %24, %29
  %31 = icmp eq i32 %30, 0
  br i1 %31, label %35, label %32

32:                                               ; preds = %28
  %33 = add nuw i32 %29, 1
  %34 = icmp eq i32 %33, %27
  br i1 %34, label %35, label %28, !llvm.loop !11

35:                                               ; preds = %32, %28, %22
  %36 = phi i32 [ 2, %22 ], [ %29, %28 ], [ %27, %32 ]
  %37 = icmp eq i32 %36, %24
  br i1 %37, label %38, label %40

38:                                               ; preds = %35
  %39 = call i32 (i8*, ...) @printf(i8* nonnull dereferenceable(1) getelementptr inbounds ([7 x i8], [7 x i8]* @.str.1, i64 0, i64 0), i32 %12, i32 %24)
  br label %40

40:                                               ; preds = %17, %20, %35, %38
  %41 = add nuw nsw i32 %12, 1
  %42 = add nuw nsw i32 %11, 1
  %43 = add nsw i32 %10, -1
  %44 = icmp eq i32 %11, %8
  br i1 %44, label %45, label %9, !llvm.loop !12

45:                                               ; preds = %40, %0
  call void @llvm.lifetime.end.p0i8(i64 4, i8* nonnull %2) #3
  ret i32 0
}

; Function Attrs: argmemonly mustprogress nofree nosync nounwind willreturn
declare void @llvm.lifetime.start.p0i8(i64 immarg, i8* nocapture) #1

; Function Attrs: nofree nounwind
declare noundef i32 @__isoc99_scanf(i8* nocapture noundef readonly, ...) local_unnamed_addr #2

; Function Attrs: nofree nounwind
declare noundef i32 @printf(i8* nocapture noundef readonly, ...) local_unnamed_addr #2

; Function Attrs: argmemonly mustprogress nofree nosync nounwind willreturn
declare void @llvm.lifetime.end.p0i8(i64 immarg, i8* nocapture) #1


!llvm.module.flags = !{!0, !1, !2, !3}
!llvm.ident = !{!4}

!0 = !{i32 1, !"wchar_size", i32 4}
!1 = !{i32 7, !"PIC Level", i32 2}
!2 = !{i32 7, !"PIE Level", i32 2}
!3 = !{i32 7, !"uwtable", i32 1}
!4 = !{!"clang version 13.0.0"}
!5 = !{!6, !6, i64 0}
!6 = !{!"int", !7, i64 0}
!7 = !{!"omnipotent char", !8, i64 0}
!8 = !{!"Simple C/C++ TBAA"}
!9 = distinct !{!9, !10}
!10 = !{!"llvm.loop.mustprogress"}
!11 = distinct !{!11, !10}
!12 = distinct !{!12, !10}
